(lp1
S'molecule'
p2
aS'nuc_frequencies__A'
p3
aS'nuc_frequencies__AA'
p4
aS'nuc_frequencies__AC'
p5
aS'nuc_frequencies__AG'
p6
aS'nuc_frequencies__AT'
p7
aS'nuc_frequencies__C'
p8
aS'nuc_frequencies__CA'
p9
aS'nuc_frequencies__CC'
p10
aS'nuc_frequencies__CG'
p11
aS'nuc_frequencies__CT'
p12
aS'nuc_frequencies__G'
p13
aS'nuc_frequencies__GA'
p14
aS'nuc_frequencies__GC'
p15
aS'nuc_frequencies__GG'
p16
aS'nuc_frequencies__GT'
p17
aS'nuc_frequencies__T'
p18
aS'nuc_frequencies__TA'
p19
aS'nuc_frequencies__TC'
p20
aS'nuc_frequencies__TG'
p21
aS'nuc_frequencies__TT'
p22
aS'relative_nuc_frequencies_one_strand__AA'
p23
aS'relative_nuc_frequencies_one_strand__AC'
p24
aS'relative_nuc_frequencies_one_strand__AG'
p25
aS'relative_nuc_frequencies_one_strand__AT'
p26
aS'relative_nuc_frequencies_one_strand__CA'
p27
aS'relative_nuc_frequencies_one_strand__CC'
p28
aS'relative_nuc_frequencies_one_strand__CG'
p29
aS'relative_nuc_frequencies_one_strand__CT'
p30
aS'relative_nuc_frequencies_one_strand__GA'
p31
aS'relative_nuc_frequencies_one_strand__GC'
p32
aS'relative_nuc_frequencies_one_strand__GG'
p33
aS'relative_nuc_frequencies_one_strand__GT'
p34
aS'relative_nuc_frequencies_one_strand__TA'
p35
aS'relative_nuc_frequencies_one_strand__TC'
p36
aS'relative_nuc_frequencies_one_strand__TG'
p37
aS'relative_nuc_frequencies_one_strand__TT'
p38
aS'relative_trinuc_freqs_one_strand__AAA'
p39
aS'relative_trinuc_freqs_one_strand__AAC'
p40
aS'relative_trinuc_freqs_one_strand__AAG'
p41
aS'relative_trinuc_freqs_one_strand__AAT'
p42
aS'relative_trinuc_freqs_one_strand__ACA'
p43
aS'relative_trinuc_freqs_one_strand__ACC'
p44
aS'relative_trinuc_freqs_one_strand__ACG'
p45
aS'relative_trinuc_freqs_one_strand__ACT'
p46
aS'relative_trinuc_freqs_one_strand__AGA'
p47
aS'relative_trinuc_freqs_one_strand__AGC'
p48
aS'relative_trinuc_freqs_one_strand__AGG'
p49
aS'relative_trinuc_freqs_one_strand__AGT'
p50
aS'relative_trinuc_freqs_one_strand__ATA'
p51
aS'relative_trinuc_freqs_one_strand__ATC'
p52
aS'relative_trinuc_freqs_one_strand__ATG'
p53
aS'relative_trinuc_freqs_one_strand__ATT'
p54
aS'relative_trinuc_freqs_one_strand__CAA'
p55
aS'relative_trinuc_freqs_one_strand__CAC'
p56
aS'relative_trinuc_freqs_one_strand__CAG'
p57
aS'relative_trinuc_freqs_one_strand__CAT'
p58
aS'relative_trinuc_freqs_one_strand__CCA'
p59
aS'relative_trinuc_freqs_one_strand__CCC'
p60
aS'relative_trinuc_freqs_one_strand__CCG'
p61
aS'relative_trinuc_freqs_one_strand__CCT'
p62
aS'relative_trinuc_freqs_one_strand__CGA'
p63
aS'relative_trinuc_freqs_one_strand__CGC'
p64
aS'relative_trinuc_freqs_one_strand__CGG'
p65
aS'relative_trinuc_freqs_one_strand__CGT'
p66
aS'relative_trinuc_freqs_one_strand__CTA'
p67
aS'relative_trinuc_freqs_one_strand__CTC'
p68
aS'relative_trinuc_freqs_one_strand__CTG'
p69
aS'relative_trinuc_freqs_one_strand__CTT'
p70
aS'relative_trinuc_freqs_one_strand__GAA'
p71
aS'relative_trinuc_freqs_one_strand__GAC'
p72
aS'relative_trinuc_freqs_one_strand__GAG'
p73
aS'relative_trinuc_freqs_one_strand__GAT'
p74
aS'relative_trinuc_freqs_one_strand__GCA'
p75
aS'relative_trinuc_freqs_one_strand__GCC'
p76
aS'relative_trinuc_freqs_one_strand__GCG'
p77
aS'relative_trinuc_freqs_one_strand__GCT'
p78
aS'relative_trinuc_freqs_one_strand__GGA'
p79
aS'relative_trinuc_freqs_one_strand__GGC'
p80
aS'relative_trinuc_freqs_one_strand__GGG'
p81
aS'relative_trinuc_freqs_one_strand__GGT'
p82
aS'relative_trinuc_freqs_one_strand__GTA'
p83
aS'relative_trinuc_freqs_one_strand__GTC'
p84
aS'relative_trinuc_freqs_one_strand__GTG'
p85
aS'relative_trinuc_freqs_one_strand__GTT'
p86
aS'relative_trinuc_freqs_one_strand__TAA'
p87
aS'relative_trinuc_freqs_one_strand__TAC'
p88
aS'relative_trinuc_freqs_one_strand__TAG'
p89
aS'relative_trinuc_freqs_one_strand__TAT'
p90
aS'relative_trinuc_freqs_one_strand__TCA'
p91
aS'relative_trinuc_freqs_one_strand__TCC'
p92
aS'relative_trinuc_freqs_one_strand__TCG'
p93
aS'relative_trinuc_freqs_one_strand__TCT'
p94
aS'relative_trinuc_freqs_one_strand__TGA'
p95
aS'relative_trinuc_freqs_one_strand__TGC'
p96
aS'relative_trinuc_freqs_one_strand__TGG'
p97
aS'relative_trinuc_freqs_one_strand__TGT'
p98
aS'relative_trinuc_freqs_one_strand__TTA'
p99
aS'relative_trinuc_freqs_one_strand__TTC'
p100
aS'relative_trinuc_freqs_one_strand__TTG'
p101
aS'relative_trinuc_freqs_one_strand__TTT'
p102
a.